; Function Attrs: mustprogress uwtable
define void @_ZN7testing8internal7PrintToEDiPSo(i32 noundef zeroext %0, ptr noundef nonnull %1) local_unnamed_addr #3 {
  %3 = load ptr, ptr %1, align 8, !tbaa !32
  %4 = getelementptr i8, ptr %3, i64 -24
  %5 = load i64, ptr %4, align 8
  %6 = getelementptr inbounds i8, ptr %1, i64 %5
  %7 = getelementptr inbounds nuw i8, ptr %6, i64 24
  %8 = load i32, ptr %7, align 8, !tbaa !568
  %9 = and i32 %8, -75
  %10 = or disjoint i32 %9, 8
  store i32 %10, ptr %7, align 4, !tbaa !569
  %11 = tail call noundef nonnull align 8 dereferenceable(8) ptr @_ZSt16__ostream_insertIcSt11char_traitsIcEERSt13basic_ostreamIT_T0_ES6_PKS3_l(ptr noundef nonnull align 8 dereferenceable(8) %1, ptr noundef nonnull @.str.81, i64 noundef 2)
  %12 = load ptr, ptr %1, align 8, !tbaa !32
  %13 = getelementptr i8, ptr %12, i64 -24
  %14 = load i64, ptr %13, align 8
  %15 = getelementptr inbounds i8, ptr %1, i64 %14
  %16 = getelementptr inbounds nuw i8, ptr %15, i64 24
  %17 = load i32, ptr %16, align 8, !tbaa !568
  %18 = or i32 %17, 16384
  store i32 %18, ptr %16, align 4, !tbaa !569
  %19 = load i64, ptr %13, align 8
  %20 = getelementptr inbounds i8, ptr %1, i64 %19
  %21 = getelementptr inbounds nuw i8, ptr %20, i64 225
  %22 = load i8, ptr %21, align 1, !tbaa !570, !range !16, !noundef !17
  %23 = trunc nuw i8 %22 to i1
  br i1 %23, label %_ZStlsIcSt11char_traitsIcEERSt13basic_ostreamIT_T0_ES6_St8_SetfillIS3_E.exit, label %24

24:                                               ; preds = %2
  %25 = getelementptr inbounds nuw i8, ptr %20, i64 240
  %26 = load ptr, ptr %25, align 8, !tbaa !514
  %.not.i.i.i.i.i = icmp eq ptr %26, null
  br i1 %.not.i.i.i.i.i, label %27, label %_ZSt13__check_facetISt5ctypeIcEERKT_PS3_.exit.i.i.i.i

27:                                               ; preds = %24
  tail call void @_ZSt16__throw_bad_castv() #59
  unreachable

_ZSt13__check_facetISt5ctypeIcEERKT_PS3_.exit.i.i.i.i: ; preds = %24
  %28 = getelementptr inbounds nuw i8, ptr %26, i64 56
  %29 = load i8, ptr %28, align 8, !tbaa !526
  %.not.i1.i.i.i.i = icmp eq i8 %29, 0
  br i1 %.not.i1.i.i.i.i, label %30, label %_ZNKSt9basic_iosIcSt11char_traitsIcEE5widenEc.exit.i.i.i

30:                                               ; preds = %_ZSt13__check_facetISt5ctypeIcEERKT_PS3_.exit.i.i.i.i
  tail call void @_ZNKSt5ctypeIcE13_M_widen_initEv(ptr noundef nonnull align 8 dereferenceable(570) %26)
  %31 = load ptr, ptr %26, align 8, !tbaa !32
  %32 = getelementptr inbounds nuw i8, ptr %31, i64 48
  %33 = load ptr, ptr %32, align 8
  %34 = tail call noundef signext i8 %33(ptr noundef nonnull align 8 dereferenceable(570) %26, i8 noundef signext 32)
  %.pre.pre = load ptr, ptr %1, align 8, !tbaa !32
  br label %_ZNKSt9basic_iosIcSt11char_traitsIcEE5widenEc.exit.i.i.i

_ZNKSt9basic_iosIcSt11char_traitsIcEE5widenEc.exit.i.i.i: ; preds = %30, %_ZSt13__check_facetISt5ctypeIcEERKT_PS3_.exit.i.i.i.i
  %.pre = phi ptr [ %.pre.pre, %30 ], [ %12, %_ZSt13__check_facetISt5ctypeIcEERKT_PS3_.exit.i.i.i.i ]
  store i8 1, ptr %21, align 1, !tbaa !570
  br label %_ZStlsIcSt11char_traitsIcEERSt13basic_ostreamIT_T0_ES6_St8_SetfillIS3_E.exit

_ZStlsIcSt11char_traitsIcEERSt13basic_ostreamIT_T0_ES6_St8_SetfillIS3_E.exit: ; preds = %2, %_ZNKSt9basic_iosIcSt11char_traitsIcEE5widenEc.exit.i.i.i
  %35 = phi ptr [ %12, %2 ], [ %.pre, %_ZNKSt9basic_iosIcSt11char_traitsIcEE5widenEc.exit.i.i.i ]
  %36 = getelementptr inbounds nuw i8, ptr %20, i64 224
  store i8 48, ptr %36, align 8, !tbaa !571
  %37 = getelementptr i8, ptr %35, i64 -24
  %38 = load i64, ptr %37, align 8
  %39 = getelementptr inbounds i8, ptr %1, i64 %38
  %40 = getelementptr inbounds nuw i8, ptr %39, i64 16
  store i64 4, ptr %40, align 8, !tbaa !560
  %41 = zext i32 %0 to i64
  %42 = tail call noundef nonnull align 8 dereferenceable(8) ptr @_ZNSo9_M_insertImEERSoT_(ptr noundef nonnull align 8 dereferenceable(8) %1, i64 noundef %41)
  ret void
}